(dp1
S'Overton TN'
p2
(lp3
F10.472027935485841
aF6.1156003196411133
aF1.6197459184570313
aF10.867413945251466
aF1.4017456013793945
aF1.5929397108764649
aF2.4368364536132812
aF9.0931018787841804
aF3.0537080631713867
aF3.2500139290161134
aF1.556442125
aF2.0506555095825196
aF4.2388233728027345
aF2.3842846075439454
aF1.5905253618164064
aF2.6597454597778318
aF2.259175694152832
aF2.0511742637329102
aF9.518670583190918
aF2.460428510559082
aF2.0289618366088868
aF2.4926043948364258
aF3.0437577399291991
aF4.8384842915649413
aF3.9795851067504882
aF4.1017917956542966
aF3.710893434020996
aF4.5921860231933591
aF3.6739679246826173
aF2.2813717747802733
aF1.8050407287597656
aF2.3671843256835938
asS'Pickett TN'
p4
(lp5
F2.7628856325683593
aF2.2198338740234376
aF1.4332028212280274
aF2.2113554905395509
aF1.4284516231689453
aF1.5148066852416993
aF1.5213476152954102
aF7.1251474132080075
aF1.5571421927490234
aF1.5368607170410156
aF1.4784351774902345
aF1.5224627875976562
aF1.7588426975708007
aF1.7384426460571289
aF1.4088832380981446
aF1.7113575975952149
aF1.4963119697875977
aF1.6602917537841797
aF10.39449026159668
aF1.6429535401000976
aF1.5397823308715821
aF1.9502813104858399
aF1.8537234368896485
aF2.2985122811279295
aF2.0396007123413087
aF1.8663989414672852
aF1.6155897930297851
aF1.7510605484619142
aF1.5763114640502929
aF1.3949405912475585
aF1.3816272561645508
aF1.6503998068847656
asS'Buchanan VA'
p6
(lp7
F5.286452809326172
aF3.1393215848999025
aF2.7767424763793946
aF3.0106493173828124
aF3.426774503540039
aF10.132646903015138
aF3.3905253901367187
aF4.7919172924194333
aF3.3894059736938478
aF2.8187312122192383
aF11.638847557067871
aF3.4000722468261717
aF2.9548390126342774
aF2.6905555189819337
aF3.4303028551635744
aF5.2518278264770508
aF5.4371681210327152
aF4.5247354963378905
aF7.6920770795898434
aF5.1298068172607421
aF6.4117349128417969
aF7.5150939625244142
aF7.6947130424194334
aF11.065538854919433
aF10.452738303466797
aF14.03675745288086
aF9.5521675771484382
aF9.4883920951538094
aF8.1208908296508788
aF8.1857431260986324
aF7.8553484998779295
aF8.1704694783935548
asS'Rowan KY'
p8
(lp9
F6.9392408009033204
aF16.297103375671387
aF3.9042176742553711
aF3.9263707337646485
aF4.3860917143554685
aF12.739776298156738
aF4.2828045059814457
aF4.0209932407226558
aF6.1225749608764648
aF4.0029199234008788
aF4.0602386625366211
aF4.1121382228393557
aF4.1846411090087887
aF4.4888294761352538
aF4.4804613140869138
aF6.1822517074584962
aF4.8734501644287107
aF5.0319233148803715
aF5.1322910423583981
aF4.617333184997559
aF4.7428852214355466
aF5.5091158330078125
aF5.75337080871582
aF5.7387866954345705
aF5.4486416606445314
aF5.7799488835449218
aF5.6089088267822262
aF4.9458475554809569
aF5.1113051917724608
aF4.7383553933715818
aF4.5583561286621093
aF4.72701291418457
asS'McDowell WV'
p10
(lp11
F5.9891459106445311
aF6.0397653244018557
aF4.0852225871582029
aF4.2893356208496094
aF4.7261739058227539
aF6.7712055615844724
aF3.1949703880004883
aF6.3230873325805668
aF3.6555908475341798
aF4.5429502668457031
aF13.434899428100586
aF4.1673570793457033
aF3.9338106943969726
aF4.3408674678344727
aF4.3492618080444334
aF6.5126889272460939
aF5.6223416500244143
aF6.0381364924926757
aF8.5243202088623047
aF7.706485325805664
aF6.9196795998535157
aF8.931368972778321
aF10.427790976318359
aF11.928857047058106
aF12.04938055871582
aF10.439825645202637
aF10.702853191711426
aF10.698768538391112
aF10.877440538330077
aF9.3155652974243157
aF10.841622917236329
aF10.125397602233887
asS'Wyoming WV'
p12
(lp13
F5.3498577007446286
aF5.4556202117919925
aF5.127610534729004
aF5.4348353971557621
aF6.2684885651245121
aF18.02465699987793
aF4.829199188537598
aF7.3106461520996096
aF3.9868464357910156
aF3.7923748591918947
aF11.644218333923339
aF2.9614483063964845
aF1.9928471522827149
aF2.9696496611938477
aF5.3650100269775391
aF7.672454913024902
aF8.6092931328124997
aF8.5938128264770501
aF10.163337880615234
aF10.383588142700196
aF10.637340030822754
aF11.345288355407714
aF10.31191440032959
aF15.755977803588868
aF12.640997148803711
aF12.354959546264649
aF9.730421734680176
aF9.007409072937012
aF6.6395301251220706
aF5.4512170179443356
aF5.0038901646728515
aF4.7178774807128905
asS'Fentress TN'
p14
(lp15
F13.953178264648438
aF10.211293480834961
aF4.4690554014282222
aF35.212534945068363
aF3.6371155773925783
aF5.1241704022216794
aF5.2844622264404295
aF14.7824770960083
aF6.1932706100463868
aF5.7131171466674804
aF2.8699038805541992
aF3.8352175888671876
aF9.240724656127929
aF9.7553204574584953
aF6.9291298513183595
aF8.5371487698364259
aF5.6080579459838864
aF7.01103033001709
aF19.401777164794922
aF14.447808192321776
aF8.7261811277465817
aF8.1278146077270517
aF5.8274589971313473
aF9.0710218955078119
aF6.5505920697631836
aF6.9671558149414059
aF6.9713176212768557
aF5.8770629797363281
aF6.920650594238281
aF3.5241514860839844
aF3.4545783870239259
aF3.1538701259765625
asS'Knox KY'
p16
(lp17
F14.390715102661133
aF50.621798989501954
aF7.4811098057861329
aF7.5802243179321289
aF8.5903518168945308
aF54.671899192260739
aF3.1756140590820312
aF2.6388655966186523
aF5.8397665573730473
aF2.6242766511230471
aF2.0322621441650393
aF1.4281017306518555
aF3.5046788936767577
aF1.4495224974365235
aF3.8108411491699217
aF1.7955181740112305
aF1.9053845038452148
aF1.5773625551147461
aF2.932967538330078
aF1.4276951823120116
aF2.1805930423583986
aF3.2887050025024416
aF2.9339626845092774
aF4.2815119617919919
aF3.8539134943847655
aF3.3856923892211914
aF3.3106301014404296
aF3.1102052902832029
aF2.7524012143554688
aF1.7587636768188477
aF1.4809482205810547
aF1.2804944771118163
asS'Lincoln WV'
p18
(lp19
F0.29822978124999999
aF0.08597691912841797
aF0.073878659545898437
aF0.038785419860839845
aF0.46950761297607424
aF141.0839052418213
aF0.42229219250488281
aF0.77624197705078124
aF0.42031854986572265
aF0.57336650482177731
aF1.4389957984619142
aF0.88078028601074221
aF0.16816221807861328
aF0.49643772375488282
aF1.0660183403320314
aF2.9607414519042967
aF4.3636417440185546
aF4.8217472573852538
aF7.4677213533935545
aF5.4547009995727542
aF5.9968125885620118
aF7.1513564718017575
aF7.6686394202270511
aF9.7195856222534172
aF10.489036218261719
aF11.439954164794921
aF10.762522746887207
aF10.66622090789795
aF11.445010006103516
aF8.4755492305297846
aF7.8758053685302736
aF8.7120688074340826
asS'Cabell WV'
p20
(lp21
F0.71064473541259765
aF0.50054147491455081
aF0.40049770074462893
aF0.39884261462402343
aF0.55153107232666021
aF7.5305499661254887
aF0.44230986431884767
aF0.59618637756347659
aF0.5571419184570312
aF0.53265216113281255
aF0.60548249688720701
aF0.54790795495605471
aF0.55431223156738285
aF0.68010150659179691
aF0.57776969293212888
aF0.88617575732421872
aF0.92070246246337895
aF0.81675822515869145
aF1.125357148864746
aF0.49461221368408204
aF0.55263545684814452
aF0.66349187097167972
aF0.62771847186279295
aF0.75510602270507809
aF0.4587397847290039
aF0.79654306018066401
aF0.69888307281494144
aF0.6819284505615234
aF0.71024689440917965
aF0.57634288641357423
aF0.50953065039062495
aF0.52658382843017582
asS'Logan WV'
p22
(lp23
F6.7653042228393554
aF4.7719979198608398
aF5.5677223265991209
aF7.5961497762451176
aF10.263890703308105
aF66.546396849365237
aF14.780333362182617
aF23.482937344543458
aF16.799790536865235
aF18.231870189331055
aF36.248110634460453
aF25.276295495910645
aF19.898574800903319
aF21.743341645324708
aF22.625377087585449
aF31.027970128967286
aF25.735566612243652
aF20.80402182196045
aF25.995766928100586
aF17.930370385864258
aF18.659354502990723
aF25.505011868652343
aF25.306281411987303
aF32.922429643798829
aF30.966656970825195
aF36.04954707293701
aF28.115878185302734
aF26.35314921936035
aF25.310754812622072
aF20.051295148864746
aF18.610769290039062
aF20.53491804248047
asS'Mason WV'
p24
(lp25
F7.5892581265869143
aF3.1792581959228516
aF3.4803732717895506
aF4.3938437124023437
aF6.8983123604736329
aF6.7048467601318356
aF5.885996243103027
aF9.104808304748536
aF4.7938812650756839
aF4.5646780272216798
aF4.6671134538574215
aF4.4048411062011716
aF3.8202566318969726
aF3.8027219498291016
aF5.1957766931762697
aF4.9886190664672849
aF5.713930123291016
aF4.198846806640625
aF8.0447659401855471
aF4.0771282261352537
aF3.5661173984375001
aF5.180855754211426
aF4.2222679306640627
aF4.7804529172363281
aF3.6555626266479493
aF7.7129442947998044
aF4.6530697907104495
aF3.772016717651367
aF4.9561975009765629
aF3.4616018753051758
aF3.3867007868041994
aF3.5851983356323243
asS'Powell KY'
p26
(lp27
F1.0638025786132812
aF9.9788353031616204
aF1.0427245698242187
aF0.96943481176757818
aF1.0316615084838867
aF15.76807450012207
aF1.3353459088134765
aF1.1829747575073242
aF2.2541334929199217
aF1.1925944149780274
aF1.3279958118286133
aF1.0601921167602539
aF1.087148229675293
aF1.1178567451171875
aF1.2624747252197266
aF2.4723025995483399
aF1.3691473126220703
aF1.4009592807617188
aF1.6502073254394531
aF1.0172371029052734
aF1.0536991979980468
aF1.2851620821533203
aF1.3345796209716796
aF1.3020191814575195
aF1.2140766546020507
aF1.5106540305786134
aF1.1278467570190429
aF1.266418479309082
aF1.603431125
aF0.80804819128417971
aF0.80417300402832026
aF0.89538717755126951
asS'Knott KY'
p28
(lp29
F15.319796925415039
aF15.58777234765625
aF13.624169141052246
aF15.527204425109863
aF17.148110006835939
aF16.317031849060058
aF15.031075291381836
aF14.77634759362793
aF15.854402812255859
aF17.455106973754884
aF19.732854252563477
aF20.121632932922363
aF21.458177735839843
aF23.976068999511718
aF25.219363672180176
aF30.275080699523926
aF27.392452341003416
aF25.873782539306642
aF34.102317961425783
aF23.818127849792482
aF24.622793624450683
aF31.288195236572264
aF22.725970147705077
aF34.680573239379882
aF31.825930792358399
aF19.573959796691895
aF21.324886786865235
aF15.219207457763671
aF16.982956938476562
aF10.382406482971192
aF10.068289262756348
aF10.018482259033203
asS'Kanawha WV'
p30
(lp31
F7.7429221766967773
aF8.2137641237182617
aF7.7145577847290037
aF9.4831002889404292
aF11.405887432861329
aF104.5151983414917
aF11.263702713439942
aF13.17833470526123
aF11.743206514709472
aF10.412143165100098
aF11.895601640747071
aF9.4302396281738279
aF7.2458571120605466
aF9.3141027584838874
aF8.5932237325439456
aF10.115900830505371
aF9.6689977438964849
aF9.5303398283691401
aF12.214785676086425
aF10.485423467224122
aF10.859586771118163
aF12.406845492797851
aF13.171694753479004
aF15.297102935546874
aF14.754736744628905
aF16.109708196655273
aF13.001333992614747
aF13.01509451171875
aF14.438388671325683
aF11.650732873962403
aF11.443607965393067
aF12.569858192138671
asS'Roane TN'
p32
(lp33
F7.7324696834106446
aF31.803213771301269
aF5.3191040410766606
aF5.360502202697754
aF5.3362358742675777
aF7.4237524360351559
aF4.0573215275878907
aF4.4153115660400388
aF4.0775985953979488
aF5.0169917860107418
aF8.7095703750610358
aF6.4806467728881838
aF3.9630356298217775
aF4.0684019930419923
aF4.6030029291992189
aF4.80021948034668
aF4.8144993934326168
aF5.3251214923095702
aF5.619223920776367
aF5.2795094742431639
aF5.2874394711303712
aF5.0373093085937501
aF5.0000781895751949
aF7.7464087406616207
aF5.0042472859497069
aF5.2968648923339847
aF5.2094159532470705
aF5.6494842019653317
aF4.3195536143188473
aF4.3847998173217775
aF3.8049906795043946
aF3.8738837280273439
asS'Clay KY'
p34
(lp35
F16.269975347717285
aF15.935355415039062
aF6.8424095751342771
aF5.2944310005493165
aF8.2405212278442388
aF28.748766989135742
aF3.6748505270996095
aF4.1473889332885738
aF12.991325814575195
aF2.6063177951049803
aF3.0723464073486326
aF2.4793193150634765
aF2.1744948896484373
aF1.4738629504394531
aF2.387016613342285
aF3.1846840834960939
aF1.7975252055053712
aF1.5562548693847655
aF2.194242174926758
aF1.1318020591430664
aF1.7403114851684571
aF2.3979201129150391
aF1.8565521546630859
aF2.0469906515502929
aF2.1135703395996095
aF2.179436929260254
aF2.7004369481201174
aF3.0036494669799803
aF3.0795592730712888
aF2.659487250793457
aF1.9147949013061523
aF1.3663744041748047
asS'Anderson TN'
p36
(lp37
F6.6716027529296875
aF126.33286407128907
aF4.6890030048217772
aF5.3448301453247069
aF5.6576055346679688
aF6.9022249285888675
aF5.0587365188598632
aF5.7507779851074217
aF5.3838445039672855
aF5.6915680648803715
aF6.5933432221069337
aF6.9718511220703121
aF6.3212703925170901
aF5.8746026257934574
aF7.1446845401000978
aF5.9367732813720702
aF5.7630230297851561
aF6.3850740556030274
aF7.1995218831176757
aF5.5142741493530272
aF6.3021370843505862
aF7.1402282259521481
aF7.6560091919555662
aF8.0260508565063482
aF8.3374623919067385
aF7.6833038000488285
aF7.2870242537841801
aF6.9838021367797856
aF6.4126054776000974
aF6.6340598211669919
aF6.0755333256225583
aF5.7845559369506834
asS'Carter KY'
p38
(lp39
F10.735347895568848
aF4.3747525109863279
aF2.8966862297973632
aF2.8946461500244141
aF5.8062916682739258
aF40.738031930847171
aF3.0665584175415037
aF2.3255262912597656
aF3.1602297177124021
aF3.2769438474731447
aF2.29838415234375
aF1.9107631079711913
aF2.3876282593994143
aF3.6155362105102538
aF3.4427722095336915
aF6.6165003309326176
aF3.8090959522705079
aF3.3628264689331053
aF2.9075269769287111
aF2.6415613154907227
aF2.7460073842773438
aF2.964162085510254
aF2.9624635211791994
aF2.9990411145629885
aF2.9920202435302734
aF2.7801220808715819
aF3.2250097096557617
aF2.8942188527832031
aF2.6701351310424806
aF2.2581748764038085
aF2.3004058013305664
aF2.4106268880004884
asS'Scott TN'
p40
(lp41
F15.442106782043457
aF19.270126240661622
aF5.7840519936523433
aF5.5702411497802737
aF3.4751009776611328
aF4.5899620424194332
aF2.885200485961914
aF2.9723320763549803
aF2.3009906832885743
aF1.6354049075927735
aF1.5383954404296876
aF1.6973593267211915
aF1.5955103215332032
aF1.9134769353027343
aF2.0894628930664063
aF2.1271139509887695
aF2.5593448586425782
aF2.9884534466552735
aF4.7719868328857418
aF2.9124963137817383
aF3.0308639151000976
aF5.2642071586303709
aF4.3359580678710934
aF5.6038265817260742
aF4.1199259980468748
aF3.9140281214599608
aF3.8530052671508788
aF3.0787847280883791
aF3.0036737169189451
aF1.9137244852905273
aF1.8982680369262694
aF2.0355643714599609
asS'Clinton KY'
p42
(lp43
F15.588921207336426
aF5.6415405959472658
aF2.2118640913085938
aF2.8119264127197265
aF2.065276384765625
aF2.1915537930297853
aF2.4361849371948243
aF6.0362058166503907
aF2.3720137499389646
aF2.2037751121215821
aF2.0080159349975588
aF1.9915149147949218
aF2.4235377444458006
aF2.3096685680541991
aF2.8896898099975585
aF3.206785804626465
aF3.1519886159057617
aF1.3956224214477539
aF11.086954895141602
aF3.1564153373413086
aF2.8699280657958983
aF3.0470940305175782
aF3.3770785683593751
aF4.4894059785766602
aF3.801892921386719
aF3.1042024656372069
aF3.327420814453125
aF4.6706274697875978
aF3.4087864605712892
aF2.9739185656738281
aF2.8930318341064454
aF3.5354066448974608
asS'Scott VA'
p44
(lp45
F3.4857870848999024
aF1.2733993123168945
aF0.46284569683837889
aF0.78971919506835941
aF1.4896834484863282
aF14.02759229901123
aF1.5671352734985351
aF1.8552474627075195
aF3.898287720703125
aF0.96066758374023442
aF1.4974726063842774
aF1.8855179450683595
aF0.59263844378662112
aF0.6801489582519531
aF1.0056546795654298
aF1.1627903823242187
aF1.9126434178466798
aF1.5152436744384765
aF1.8953572529907226
aF1.5735762400512696
aF1.2097106550292969
aF1.3292265266113281
aF1.638249376953125
aF2.2351053269042969
aF3.0887902367553712
aF2.0961910102539063
aF1.2507698867797852
aF1.088441961364746
aF1.4553703474121094
aF0.82170588140869139
aF0.93474989050292967
aF1.0640613387451172
asS'Mingo WV'
p46
(lp47
F5.6784801130981446
aF4.8825448966064453
aF5.3284133219604488
aF6.2387067258911131
aF10.117308212585449
aF70.320898227233883
aF14.409381674621581
aF26.040299650512694
aF17.955442037414549
aF18.501535393066405
aF24.065638205200194
aF17.549221060180663
aF11.824714466308594
aF13.854657353759766
aF15.072504111206054
aF23.136900330932619
aF19.31615239215088
aF18.061297815979003
aF24.068129544799806
aF15.620578822631837
aF14.93282150793457
aF22.007783103393553
aF22.660500790466308
aF30.680298473754881
aF27.275432241760253
aF31.229190515441896
aF26.603549540039062
aF23.897894012817382
aF24.232513654174806
aF17.570383468139649
aF15.332132760864258
aF14.371324849365234
asS'Lee VA'
p48
(lp49
F2.1736154259643556
aF8.1981680936889649
aF0.49543460449218751
aF0.73836230950927739
aF0.6819352987670898
aF4.4197977637939454
aF0.82555918328857425
aF0.96845318194580077
aF0.79485183502197265
aF0.73831929400634766
aF0.95825468194580077
aF1.5653605604858398
aF1.4379355662231446
aF1.8282050447998046
aF2.3838742700195312
aF1.1796697118530273
aF0.89460787359619143
aF1.110464332397461
aF1.4101445408935547
aF1.3756272982788087
aF1.9137253917236328
aF2.3194934043579103
aF2.3425513668823243
aF3.3162880770263672
aF3.195838295227051
aF2.7415576594848634
aF2.0925507634277345
aF2.0727965764160157
aF2.3423590443115234
aF1.6873469234619141
aF1.7176095722656251
aF1.7233610750732422
asS'Mercer WV'
p50
(lp51
F1.9356351705322266
aF1.8745804621582032
aF1.7106387166748047
aF1.862234849182129
aF1.9388788192138673
aF1.5708450582275391
aF1.6237003776245118
aF1.5500039216308594
aF2.0138657679443361
aF2.4708942503051756
aF2.5956072886352537
aF1.6236886691894532
aF1.7883169663085938
aF1.4715271606445313
aF1.768106232055664
aF2.2556755517578124
aF2.1208247396240236
aF2.0005145449218751
aF3.0454226441040038
aF1.8130602378540039
aF1.6780126994018554
aF2.2849852894897462
aF2.0893872856445315
aF2.791377177734375
aF2.4578370314941407
aF1.7265699146728515
aF2.3449258987426758
aF2.4400957274169923
aF2.3200988399658202
aF1.8675195708618164
aF2.3027068643798829
aF2.1473157704467773
asS'Tazewell VA'
p52
(lp53
F1.3322939963989258
aF1.3803680569458008
aF1.0051238127441406
aF1.3523818462524415
aF1.4419165768432618
aF1.590674821044922
aF1.4446390550537109
aF2.1556675497436522
aF1.8044114806518554
aF1.7386028703002929
aF6.4947012364501955
aF1.5053510260009766
aF1.4303078885498046
aF1.5448375385742188
aF1.4939910737304687
aF1.6092563108520508
aF2.2907635855712889
aF1.6633346343383788
aF10.232495495117188
aF2.2885579577026367
aF2.6545460527343749
aF2.895189299621582
aF2.7560933018798828
aF3.8866176599731443
aF3.1145307425537108
aF14.599863280883788
aF2.7034542257690428
aF2.9173679229125975
aF3.3857894047851564
aF3.1676744780273438
aF3.3488291519775393
aF3.4886998981323241
asS'Morgan TN'
p54
(lp55
F6.7168140676879879
aF17.041961461914063
aF3.239117757080078
aF4.6916424373168946
aF2.2081120103759764
aF2.6956888341674805
aF1.7933659035644531
aF2.645174577026367
aF2.0184613139038086
aF2.6963250892333983
aF2.0152672802734375
aF2.8135992598876953
aF4.5416664666137692
aF7.8631030820922856
aF6.119090165466309
aF5.0084760045776369
aF8.5943363303833014
aF9.3693777106323246
aF6.7046081229248049
aF4.114546683654785
aF1.6088134578857423
aF4.4934740828247071
aF3.1989117586669922
aF2.6926627889404298
aF2.4784102467651365
aF1.8268350424194335
aF1.632700866821289
aF1.8361757260131837
aF2.2267064145507813
aF1.5676784667968751
aF1.5985846469116212
aF1.5466013295898438
asS'Breathitt KY'
p56
(lp57
F23.664865186828614
aF63.732940544494632
aF21.507448805297852
aF20.510603024353028
aF23.24649808251953
aF106.90071322973633
aF18.036973317749023
aF16.458605837158203
aF23.065132597045899
aF16.563867841003418
aF15.76810766052246
aF11.585153337524414
aF12.218286904418946
aF18.533156132934572
aF12.744402984619141
aF13.425448685424804
aF10.420376088012695
aF9.9468819699707023
aF11.16088468511963
aF5.5393732084960936
aF7.1902869566650391
aF13.402734406982422
aF8.5071227483520513
aF13.792983772888183
aF11.974472527832031
aF9.2047064421997078
aF8.6410761654663091
aF6.9577695582275387
aF7.8638054097290038
aF7.9834840665893552
aF7.9103196101074218
aF7.6256209707031246
asS'Bell KY'
p58
(lp59
F20.623292797790526
aF304.63924576342771
aF14.691342375488281
aF17.530350249328613
aF18.86565482409668
aF32.514130507263182
aF12.425974027160645
aF10.704548867553711
aF8.5861186454467777
aF8.4887349382324224
aF6.4894938198852543
aF7.7116961663208006
aF9.1441052559204099
aF9.7305899781494141
aF13.836953983642578
aF12.504839366394043
aF10.439067886657714
aF8.2559550896606453
aF12.25580315209961
aF4.9978493318481449
aF6.5635264447021484
aF9.2953221999511726
aF8.2600477860107429
aF10.472576112182617
aF9.3439673925781257
aF8.575980149780273
aF10.458160759521485
aF8.895970769226075
aF9.291295644226075
aF7.2697862438354495
aF7.2156375214843749
aF6.1142830509643558
asS'Magoffin KY'
p60
(lp61
F11.108384339782715
aF23.19118869781494
aF5.3138285874633793
aF3.6528114443359376
aF3.8883965428466798
aF36.808297335510254
aF2.3036693915405273
aF2.7427443609619142
aF2.7560209270019533
aF1.2949561076049805
aF0.84303863507080079
aF1.2366634750976562
aF1.5708437064819336
aF2.1718160190429687
aF2.1896614070434572
aF2.259803028137207
aF1.8560056237182616
aF1.6408390962524415
aF2.0293315748901368
aF1.849572431213379
aF2.4970972621459961
aF4.0007053660888676
aF2.704412257019043
aF3.9840589860229492
aF5.1890507377319333
aF5.8305782185668944
aF4.4456088876953128
aF3.9931918393554686
aF4.8405865498046872
aF3.9009038026123046
aF3.7092508274536131
aF3.3300582614746093
asS'Estill KY'
p62
(lp63
F3.0177071072387696
aF6.7181685383911134
aF1.4503747727661134
aF1.2011693316650391
aF1.2552561516723633
aF12.321205254028321
aF1.2491837789916993
aF1.2435282689208984
aF1.4141114809570312
aF1.1743602662963868
aF1.2817668938598632
aF1.1182428676757812
aF1.2866264801025391
aF1.3472334623413087
aF1.3169831034545898
aF2.4334713082885742
aF1.4169978584594727
aF1.3048039369506836
aF1.7493440990600586
aF1.0788596966552735
aF1.0585239837036133
aF1.3268266258544923
aF1.1766387504882811
aF1.4544446029052733
aF1.2683808435058594
aF1.2311349267578124
aF1.0191299641723632
aF0.93754832495117191
aF1.1974371460571289
aF0.69757314550781246
aF0.77239030578613277
aF1.1646798285522462
asS'Lawrence KY'
p64
(lp65
F4.0476135374145512
aF3.5650722314453125
aF2.7880640182495116
aF2.5689561674194334
aF2.9102330536499021
aF5.6808067149047847
aF0.85704986285400386
aF1.0561698142700195
aF0.61505299475097652
aF0.52299882922363283
aF0.83772711822509771
aF1.1798607451782226
aF1.1624448444824218
aF1.3974459735107423
aF1.7230126082763673
aF2.4302818021850587
aF1.6825629487304687
aF1.8506846674194335
aF3.8038601570434571
aF1.0519260568237305
aF1.5524293320312501
aF2.5915957826538087
aF3.5926608529052735
aF4.6688773256225584
aF3.3657837575073244
aF4.2519934740600585
aF2.7277897364501955
aF1.7115786215820312
aF2.1878357798461914
aF1.3949011088256835
aF1.7231314531860351
aF1.8104427388916016
asS'Nicholas WV'
p66
(lp67
F5.3423973458251952
aF5.6787207223510743
aF6.392098235534668
aF8.8444858707885743
aF12.56600921057129
aF11.967313511840821
aF11.520544064392089
aF12.249392405090331
aF11.255233242553711
aF10.807821326171876
aF10.959722904296875
aF8.3188704527587891
aF8.6134097059936519
aF9.8772964335937505
aF22.850944561035156
aF12.11771449194336
aF12.627584485046386
aF17.005218641113281
aF17.256957049377441
aF21.301144793518066
aF16.661577091308594
aF19.87519481640625
aF21.273399206054687
aF24.88930174798584
aF28.724427633544924
aF24.349010783691405
aF20.695439768981934
aF19.241541418457032
aF19.156609978637697
aF17.440136309814452
aF13.949254899230956
aF10.971161678527832
asS'Putnam TN'
p68
(lp69
F10.206959845947265
aF8.1762763835449217
aF2.4774350852661131
aF29.035737226501464
aF2.0510873989868164
aF2.9901036308593749
aF4.2444220906372072
aF15.046649400024414
aF2.8769281580200197
aF3.3480711223144533
aF2.3476738088378908
aF2.5002513688964845
aF6.4088668917846681
aF3.3266760260620116
aF2.2334082344360353
aF3.9141058305053713
aF2.5603473816528322
aF2.8922301893920896
aF8.8746244334716788
aF2.9689426867065429
aF2.9934042008666992
aF3.3653546185302736
aF4.7736090416870116
aF4.8982904841308592
aF4.2011151923828125
aF4.728120856750488
aF4.7153824187011715
aF6.4828005157470701
aF4.8606103981933595
aF3.0659939917602541
aF2.4449641303100584
aF3.4710021219482421
asS'Dickenson VA'
p70
(lp71
F2.5310960269775391
aF1.6489894984741211
aF1.6990866918945313
aF1.7049633110961915
aF2.4720910682373045
aF3.1162507388305665
aF2.1815347536010741
aF3.5017637239379882
aF3.4956395814819334
aF2.5722718253784178
aF4.8992118366088864
aF2.976267155395508
aF3.3106852658081056
aF1.56080483984375
aF2.2235509411621095
aF4.8148041502685546
aF4.5616582460937503
aF1.3905846457519531
aF6.2963023955688477
aF1.1325532338256836
aF1.2642409750976562
aF1.539642494140625
aF1.9117115060424805
aF3.5777727783813478
aF3.6620220912475587
aF4.4620553889160153
aF3.2655188170166016
aF3.9379779115600586
aF3.7283118347778319
aF3.290866910583496
aF2.8553986000976561
aF3.3666005323486328
asS'Jackson KY'
p72
(lp73
F6.8021257444458012
aF8.0405937583618172
aF3.1395508259277345
aF1.8889459663696289
aF2.4306498173217772
aF17.393249521301268
aF1.2326513565673829
aF1.7306162785644532
aF1.5485183494873047
aF0.55507818060302738
aF0.719835495300293
aF0.54998491113281245
aF0.33730317980957031
aF0.48955881732177736
aF0.50481537475585936
aF1.4880208494262694
aF0.67166922967529297
aF0.5801020269775391
aF0.99242515411376953
aF0.45196667523193357
aF0.68946009259033203
aF1.5627638421020509
aF1.5105280905151368
aF1.4777534972534179
aF2.004147307495117
aF1.0091031521606446
aF0.74328104278564455
aF0.43620844720458984
aF0.46468562469482422
aF0.81183753594970698
aF0.4832210056152344
aF0.37701597387695313
asS'Laurel KY'
p74
(lp75
F21.693305888977051
aF20.37548499682617
aF7.9809028242797853
aF6.4587027537841797
aF8.7877213712158202
aF38.433388875305177
aF3.4820000005493164
aF3.2617205636596678
aF4.0116174443969728
aF2.5167975962524416
aF3.386002740539551
aF3.5972204115600586
aF2.8382821740722655
aF2.8019187567138673
aF3.4516715679931642
aF6.2876979983520505
aF4.0385093046874996
aF3.5803828579101564
aF4.7939248007202151
aF2.3398556973876952
aF2.5015424542236326
aF5.3001125358886716
aF4.0864898786621096
aF7.3463223197631837
aF5.4229210629882809
aF2.9759285591430662
aF2.8419009960327148
aF2.6168826337890625
aF2.3071285302734377
aF2.2303366702880858
aF1.9737708773193359
aF1.8910235314331054
asS'Clay WV'
p76
(lp77
F0.67769476116943361
aF0.67259378179931639
aF0.52478624224853521
aF0.58933779162597655
aF0.87908555218505857
aF1.4539161165161132
aF0.76153734423828123
aF0.67166131524658201
aF0.69104865356445311
aF1.1308307310180663
aF2.0109325313720703
aF1.8785156242675782
aF2.8588005546874999
aF2.706849439941406
aF4.0889037332153322
aF4.8225226516723634
aF4.1770265214233397
aF5.0024406830444335
aF5.0863162046508785
aF4.6137346420288088
aF5.7150529959106446
aF6.2866194293823243
aF6.4466332755126956
aF7.9966136865844728
aF6.9564730418090823
aF5.9261011796874996
aF5.1809531923828125
aF4.6632424018554683
aF4.5009018846435547
aF2.6263709071044921
aF2.5634637306518555
aF1.6591370764770508
asS'Martin KY'
p78
(lp79
F28.259426737609864
aF24.78028207495117
aF24.155145357666015
aF22.909921206237794
aF25.86160547705078
aF26.390523214294433
aF17.864790149719237
aF19.322984415161134
aF15.74000046673584
aF16.691128840942383
aF17.953853488586425
aF16.907310836059569
aF16.901725961486818
aF20.462938345520019
aF21.645043237060548
aF35.797106912597656
aF25.350729441101073
aF21.662379810791016
aF25.459210925842285
aF13.583079931030273
aF17.551357020690919
aF21.134418015686034
aF14.758171199035644
aF16.590595697326659
aF15.618693591247558
aF12.150367739990234
aF11.198966650451661
aF9.925102805175781
aF10.710710551940918
aF4.6203632261352539
aF3.7805276953125002
aF2.8987430311279296
asS'Lewis KY'
p80
(lp81
F5.292761063720703
aF2.4541542604980471
aF0.72675447186279296
aF0.5783727315063476
aF4.6142487443237306
aF63.800404269104007
aF2.1499698651733397
aF0.52068890490722652
aF1.7311004162597656
aF0.91706468615722658
aF0.53400687322998042
aF0.42167340521240232
aF0.56025704138183596
aF0.93599213183593755
aF0.64473215203857426
aF5.8408697092895512
aF1.3955203569946288
aF0.82730558856201175
aF0.90896423223876954
aF1.006802544189453
aF0.58252341778564454
aF0.73811307708740237
aF0.73633950830078121
aF0.74791543829345708
aF0.93291270336914067
aF0.5930718813476562
aF0.83382664978027343
aF0.71926576879882809
aF0.90023854815673832
aF0.53752479968261724
aF0.46773434625244142
aF0.4165852681274414
asS'Campbell TN'
p82
(lp83
F19.944056499084471
aF143.31163174139405
aF9.6514144373779303
aF10.037159141601563
aF9.5014038549194328
aF17.460735272521973
aF7.7858483684692379
aF6.2753112645263673
aF5.6103370803222656
aF5.3676645988159182
aF4.5933874010009763
aF5.0756269208984373
aF4.2482956391601565
aF4.4972256618041992
aF5.1295237772216797
aF4.4063911402587888
aF4.4447623706665036
aF4.7977237171630858
aF5.3909732989501951
aF4.0527199236450198
aF4.33026654486084
aF5.5709848251953122
aF5.9642187683715822
aF6.2018489851074214
aF5.865548012084961
aF5.4023815076904294
aF5.8802185455932614
aF5.5843113056030269
aF5.3026210421142581
aF4.9332469849243168
aF4.5380342238159184
aF3.414908436706543
asS'Boone WV'
p84
(lp85
F9.2360182174072261
aF8.0202217977905281
aF7.1880320612792969
aF9.2226067120971678
aF11.337595054748535
aF55.256554797302243
aF11.614161745605468
aF17.231926868530273
aF15.493343978393554
aF16.35170293145752
aF41.088852705566403
aF21.869916380187988
aF16.885024321960451
aF21.515364393493652
aF23.77811276824951
aF36.635160631591795
aF31.801670039489746
aF28.770248133178711
aF40.84835032232666
aF30.146098140441893
aF31.235337761779785
aF42.506867483093259
aF44.097761865661624
aF55.508334738769534
aF47.540341989196776
aF54.630573305419922
aF45.231363356140136
aF44.796097911499025
aF44.821181451538088
aF32.5717978996582
aF30.294916989074707
aF33.959736871032717
asS'Harlan KY'
p86
(lp87
F6.7192844510498047
aF96.998148904174798
aF5.1114025742797855
aF6.3361048383789065
aF8.0865502827148443
aF17.163156594299316
aF4.6636529921264644
aF3.5674235286254881
aF4.2389632910766606
aF4.2849435706176759
aF4.5684731449584959
aF4.7428753597412108
aF4.9248319213867191
aF5.0266742427978519
aF7.779273002258301
aF7.099504445739746
aF7.5816276298217771
aF6.9772766803588864
aF10.47478025189209
aF4.7920776921997073
aF9.3730341861572271
aF12.058126446350098
aF11.230500920532226
aF14.297458922302246
aF14.34165397265625
aF13.79404649017334
aF12.599260921447755
aF12.542189747802734
aF13.06627250994873
aF10.629513950866698
aF9.9217389547119144
aF8.4417194443359378
asS'Pike KY'
p88
(lp89
F19.804757627258301
aF14.507298267211914
aF14.971994641723633
aF17.091523286621094
aF20.813028319274903
aF78.557676752380374
aF24.896986030029296
aF38.030887140563962
aF27.416019717834473
aF28.091082914428711
aF56.066074694335938
aF38.843134797607419
aF34.941150026184083
aF38.175146907165526
aF42.522081668151856
aF69.675012212646479
aF67.826547249938969
aF56.36715491705322
aF70.209980139343259
aF46.67394699499512
aF54.238619135742191
aF63.635027680725095
aF53.541463066467287
aF76.960589067932133
aF57.791505608947752
aF55.852987524475097
aF46.741799377563474
aF42.643038004699704
aF47.969111121765138
aF34.580593173461914
aF33.644475740844726
aF31.407649065002442
asS'Wayne WV'
p90
(lp91
F1.0041698475341796
aF0.787882899230957
aF0.81382691210937497
aF0.96219587603759771
aF1.1006700250854493
aF16.872839946777344
aF2.3791727708129882
aF3.9380058728027345
aF2.6471210280761719
aF3.1075435833740235
aF4.1186100372924805
aF3.3383288865356446
aF3.1312468465576173
aF2.3250230981445315
aF2.6222787163696291
aF4.2185382643432616
aF2.7473792256469727
aF2.8463067990722655
aF4.6859329458618166
aF1.8523200931396484
aF2.324381828979492
aF2.4766747763061523
aF2.3617343184814454
aF2.5864539656372072
aF2.2251932283935547
aF2.5505059511718748
aF2.4764656773071287
aF2.436499237487793
aF3.485760317932129
aF2.1625813585205078
aF2.236421016845703
aF2.1902336093749999
asS'Morgan KY'
p92
(lp93
F13.757110690551757
aF32.822577981506349
aF5.4166485409545899
aF2.7028908114624022
aF2.9921106678466796
aF55.834462920959474
aF1.6446173930664063
aF1.8302993231201172
aF10.020233480712891
aF1.5569958756713866
aF1.503328995361328
aF1.0323678786010742
aF1.4245549262695312
aF1.7295635348510743
aF1.4553712000732422
aF2.6929294951782228
aF1.0789020510864258
aF1.310491047241211
aF1.4291558329467773
aF0.90779897991943359
aF1.1116997849731445
aF1.6593548151245117
aF1.6362606872558594
aF1.97770608203125
aF2.1873376713867185
aF2.1938089213256835
aF1.9487817325439454
aF1.6216114904785157
aF2.8570799942626954
aF1.5357026874389648
aF1.2818108072509766
aF1.2559710866699219
asS'Whitley KY'
p94
(lp95
F17.253302522460938
aF71.997921873413091
aF10.564622700378418
aF10.152721079223634
aF9.4751323264770502
aF33.356669898864745
aF5.1256522608032222
aF4.6448022830810549
aF4.067893916564941
aF3.3951498400878908
aF2.840065472229004
aF3.9505493538208007
aF3.564098105407715
aF2.350091244506836
aF2.308198612854004
aF2.6161249399414062
aF2.2130447228393555
aF2.0549452595825195
aF3.6589424364624024
aF1.4216089642333984
aF1.9284527954711914
aF3.2238190676269531
aF2.6098934844970705
aF3.5844686543579103
aF2.9806585001220705
aF1.8531289213256836
aF1.6961061508789061
aF1.2972857974243164
aF2.086500079223633
aF1.7159053334350587
aF2.1187356392211916
aF2.2403072392578127
asS'Letcher KY'
p96
(lp97
F14.051507844665528
aF12.014803584838868
aF10.757796614685059
aF10.979665301330567
aF12.333161722717286
aF12.835528830627441
aF13.376196573181153
aF12.529467192932129
aF11.671571352661132
aF11.676739843078613
aF13.633033061218262
aF12.269524302246094
aF11.077705460876464
aF12.470738673583984
aF14.365720292297363
aF19.583914467407226
aF20.360604628051757
aF19.237227341369628
aF21.097494507995606
aF13.380130639160157
aF14.924017388305664
aF22.363214208374025
aF16.792412132446287
aF27.1104783626709
aF20.739708162719726
aF15.182778043945312
aF14.454209052978516
aF12.332555131408691
aF12.378860224487305
aF8.7784702866821291
aF8.5982446857910162
aF8.4496164799804685
asS'Boyd KY'
p98
(lp99
F5.7691819514160159
aF3.4671471259155275
aF3.2282908489379882
aF3.354433929321289
aF4.2840883043823244
aF3.8689593900146484
aF2.9374601731567385
aF2.5989664957275389
aF2.3005437117309571
aF2.574029895263672
aF3.0135400220947264
aF2.0994145852050781
aF2.3916173711547852
aF2.7481722483520508
aF3.8932075646972657
aF4.0312343722534179
aF2.8828525409545898
aF2.590457872680664
aF2.9382397860717773
aF2.1439579215087892
aF2.0428859858398436
aF2.5238448026733398
aF2.2157401246948241
aF2.833814171936035
aF2.723961470703125
aF2.4093059696044921
aF2.0529475412597655
aF1.9161295693359375
aF1.957511014038086
aF1.7437862083129883
aF1.7090494771728515
aF1.9045983148803711
asS'Wayne KY'
p100
(lp101
F30.580956584716798
aF21.483972948486329
aF11.803042272277832
aF14.294849751220703
aF9.0066784549560541
aF8.3535728919677741
aF7.4246082029418945
aF14.795002018066405
aF8.7712738483886721
aF8.0333799210815435
aF7.3155756146850583
aF6.9735511895141604
aF7.5191452688598632
aF7.3032361034545898
aF7.2138339148559574
aF7.9160480684204098
aF7.3869937224121092
aF3.4258177200927733
aF20.676365320739745
aF7.5976772247924806
aF7.649502918701172
aF8.2269847305908197
aF8.5010961774902345
aF11.069575817077636
aF10.503070404541015
aF8.3508758114624015
aF7.634168236694336
aF8.4916536085815437
aF8.2138708904418944
aF7.1227533125610352
aF7.1414735494995121
aF7.6350940648803709
asS'Greenup KY'
p102
(lp103
F6.6468483544311523
aF3.3317277600097657
aF4.075789224609375
aF5.0530692095336915
aF9.5866144463500973
aF34.331227593261715
aF5.1602156688842777
aF4.6852029744873045
aF5.452648777770996
aF5.8955772573242191
aF2.9386990895385741
aF1.5563502814941406
aF1.6776503849487305
aF1.671563090637207
aF3.2701201541137697
aF3.9109780232543945
aF2.9629505544433594
aF1.4356072746582031
aF1.8290257377929688
aF1.2170227883911133
aF1.5152255623168944
aF2.0855559417724607
aF1.956141752380371
aF2.384730349243164
aF1.6246966371459961
aF1.5945188607177734
aF1.1465451374511719
aF0.92647946704101558
aF1.129774271484375
aF0.69693044433593754
aF0.76784859442138675
aF0.82429443420410153
asS'Elliott KY'
p104
(lp105
F6.4198191362304691
aF14.13835003137207
aF2.1752856330566406
aF1.2716307158203124
aF1.5119842302856445
aF11.793224544494629
aF0.53157022753906247
aF1.0119771157836914
aF0.92552961718750004
aF0.38843505841064452
aF0.31812086645507814
aF0.12617792742919923
aF0.24322656982421875
aF0.57540629364013673
aF0.24578081866455079
aF1.2068747584228516
aF0.29971471331787108
aF0.15849061755371094
aF0.79144923205566409
aF0.46541044927978514
aF0.54042395941162114
aF0.58269998114013677
aF0.51183606268310544
aF0.60957167236328125
aF0.64237335430908205
aF0.66411685980224611
aF0.37481912792968752
aF0.19018622180175782
aF0.42735056842041014
aF0.17308658270263672
aF0.36329147430419922
aF0.34467728662109376
asS'Cumberland TN'
p106
(lp107
F15.503384489318847
aF13.72649692541504
aF8.682742358459473
aF97.338159925842291
aF4.5688163629150393
aF10.659357364685059
aF8.5510222089843744
aF60.752919013000486
aF8.7733864888916013
aF9.5070066522827155
aF4.5014419941406247
aF5.3356136734008786
aF10.738378697814941
aF8.3336588774414064
aF6.7613157857055661
aF10.338130434204102
aF8.9001519926757808
aF16.954941531066893
aF23.209643108154296
aF20.484801793945312
aF9.1500474926147461
aF14.45077832598877
aF10.408189614746094
aF18.521007805786134
aF10.660371254516601
aF13.224956889465332
aF11.065289829528808
aF12.153788800964355
aF13.697583265624999
aF6.2645222692871094
aF6.544935018981934
aF8.1403041065673829
asS'Claiborne TN'
p108
(lp109
F10.342526052856446
aF163.46695689245607
aF5.0981295856933597
aF5.9075374140014647
aF5.4808280277099612
aF16.484793420959473
aF5.4339951681518555
aF4.4492578297119136
aF5.2508336644287112
aF5.9149184330444333
aF5.0002078316040039
aF6.8239856520385747
aF7.1748238416137697
aF6.5305108204345705
aF10.141985053100585
aF6.3275977498168947
aF6.8659094129638669
aF6.5124228584594723
aF9.1672265465087897
aF7.0690470652465818
aF7.2220993955688479
aF9.1865623873901363
aF8.9447883323974615
aF9.8501321708374032
aF9.0013717395629875
aF7.7972141144409184
aF6.9353425010986332
aF5.6118015505981447
aF5.1212810627441403
aF5.7919763240966793
aF4.9015144873657226
aF4.9132286538085941
asS'Rockcastle KY'
p110
(lp111
F6.0012891815185547
aF4.7114581441650394
aF3.815551637939453
aF2.9678056621093751
aF1.9069007952270507
aF1.9976412084350585
aF0.97502566760253906
aF1.0545951641845703
aF0.98720326251220702
aF0.9244535396728516
aF0.9450500224609375
aF0.61893058374023435
aF0.60008133068847658
aF0.69845669250488285
aF0.39393257086181643
aF0.7394992173461914
aF0.68354439807128908
aF0.50978570916748045
aF0.98483160089111332
aF0.26956433294677734
aF0.59471553063964844
aF0.65439192614746089
aF0.72182942364501956
aF1.4627002197265624
aF1.1459899877929687
aF0.68551159973144526
aF0.78120665209960938
aF0.86886685607910152
aF0.8587043817138672
aF0.6443931840209961
aF0.58310522167968748
aF0.65684908984375001
asS'Summers WV'
p112
(lp113
F0.30514808087158202
aF2.2069432153930664
aF0.57092338342285154
aF0.56592373144531249
aF0.77011520263671873
aF0.33667764892578123
aF0.32579064801025392
aF0.65506273352050781
aF0.55574918115234373
aF1.6758573134765624
aF0.86955715570068359
aF0.26916605212402345
aF0.23367872918701171
aF0.24829521044921876
aF6.8494592951049809
aF0.59449850408935545
aF0.26706707580566408
aF0.36199251751708983
aF0.31760067657470703
aF0.22806366912841797
aF0.2776188578491211
aF0.31933928851318361
aF0.35039804864501956
aF0.76934208514404301
aF7.7945802067260743
aF0.19457408569335938
aF0.33689143804931643
aF0.37818040759277344
aF0.25177744494628906
aF0.091748599975585932
aF0.1458460230102539
aF0.098590228698730464
asS'Menifee KY'
p114
(lp115
F2.4178750670776368
aF32.56835200854492
aF0.80833522320556639
aF0.56192803094482424
aF0.68880927423095706
aF14.713273608215331
aF0.65920552539062505
aF1.0640868823242187
aF2.9793315083007812
aF0.84264470037841799
aF0.69778106903076176
aF0.52394182293701175
aF0.66145203857421875
aF0.77608286993408204
aF1.0425736536254884
aF1.2709659657592773
aF0.61673263201904294
aF0.7138647692871094
aF1.0766414555664063
aF0.80390677239990238
aF0.77820144348144527
aF0.94790558581542972
aF0.77320829852294926
aF0.83081961260986326
aF1.0289077272338867
aF0.85867696844482422
aF0.72058621044921878
aF0.61441341876220701
aF0.65191699627685551
aF0.70388079058837894
aF0.62289012811279298
aF0.57923765246582026
asS'Owsley KY'
p116
(lp117
F6.5116966803588872
aF67.007707791015619
aF4.7943932318115232
aF4.3587659227905275
aF5.1699247569580082
aF20.295631106262206
aF3.2524084794921877
aF2.6157083624877928
aF2.3655911956787108
aF0.97323169848632818
aF1.0828748181762695
aF1.253349650390625
aF1.1461608963623047
aF1.7405052866821289
aF1.0154742633666993
aF1.6387182420654296
aF0.56911502276611325
aF0.41413504162597659
aF0.80828973089599609
aF0.38937441510009768
aF0.49223967065429686
aF0.75661041796874995
aF0.83194072851562495
aF1.1098966831054689
aF1.1727567235107421
aF1.0034953846435546
aF0.49470770587158203
aF0.54584929858398434
aF0.72882784088134767
aF0.47277058758544921
aF0.30969248657226561
aF0.27069289215087888
asS'Raleigh WV'
p118
(lp119
F3.6989203531494139
aF3.7315191955566407
aF2.7816066196289064
aF3.0133958328857422
aF3.3175334763793947
aF4.983120017028809
aF3.020104518371582
aF3.5825013299560546
aF3.2251836011352539
aF3.5654590238647459
aF13.44348801940918
aF2.7711576071166992
aF2.4072396029663086
aF2.2832222376708984
aF3.5757328015136718
aF4.3814828916015625
aF4.2196834587402341
aF4.4400588437500002
aF6.206363405761719
aF5.9196371480102536
aF7.5540401687011718
aF9.0521824056396483
aF10.311949050109863
aF13.247930936645508
aF14.650903137573243
aF16.257184799377441
aF15.196085037475585
aF17.098255009826659
aF17.607299005004883
aF13.752804849182128
aF14.861937010253905
aF15.803198961853028
asS'Greenbrier WV'
p120
(lp121
F6.0867876279907227
aF47.83395327258301
aF4.5054427105102537
aF5.6424970596923831
aF11.969765797546387
aF5.3135616600341793
aF4.3111607692260741
aF5.6238778934936526
aF5.1888450407104489
aF5.3128011207275394
aF7.3991867194824215
aF4.202850279724121
aF3.9942248947143555
aF7.8214264987792967
aF68.341198980041497
aF6.4588202559204104
aF4.574087236633301
aF5.8618967052001949
aF5.9668483282470701
aF87.520901062438966
aF11.877877100219727
aF3.8471898715820312
aF11.998087522827149
aF4.9468364382934569
aF33.398435282226565
aF6.9662318151245115
aF6.2055235688476564
aF6.326203463256836
aF9.690662568237304
aF13.868911200561524
aF7.3629313165893553
aF5.2428476311035155
asS'Pocahontas WV'
p122
(lp123
F1.0707666087646484
aF3.617559227294922
aF5.5696659956665036
aF1.4912118979492188
aF48.24275521374512
aF1.5900930828857422
aF1.6133920369873047
aF27.602938672607422
aF1.8066949019775391
aF0.95282381103515623
aF5.4817410662841795
aF0.61413865100097653
aF5.45972118359375
aF0.85685765118408208
aF83.82557873950195
aF1.1442796192626954
aF1.1545672510986329
aF1.0522420752563477
aF1.4254433124999999
aF308.96325569860841
aF20.288853549072265
aF0.58713890649414058
aF9.0958281594238279
aF1.3502144274291992
aF27.696366607299804
aF0.59581310906982421
aF0.91286239440917971
aF2.4230082178344725
aF1.1603203643798827
aF24.998423659423828
aF0.87892181323242191
aF0.3526742137451172
asS'Perry KY'
p124
(lp125
F26.988623944824219
aF32.850192454467773
aF24.972980237609864
aF27.296801391967772
aF33.83626218261719
aF80.968597740539551
aF30.505964868164064
aF30.116778170532225
aF34.140554102966306
aF31.250855512878417
aF31.095938654174805
aF29.965248947692871
aF28.241301224304198
aF32.163781441467286
aF30.335698375427246
aF43.200004305664059
aF32.473306111572263
aF28.610000188537597
aF39.175408818603515
aF25.717979473266602
aF29.705686451110839
aF38.772019714904786
aF30.857896593933106
aF45.935981862304686
aF42.318629291381839
aF36.018533163452148
aF37.836392658935544
aF32.265198123840335
aF33.515381886352536
aF27.99755353363037
aF22.059128680419921
aF20.993238925781249
asS'Russell VA'
p126
(lp127
F6.3218903068237307
aF3.054660246459961
aF2.0851164298706055
aF1.8774022927856446
aF2.4651708425903318
aF7.5379178159790037
aF2.5320808114624023
aF28.357260775817871
aF4.7104054459838869
aF3.2194047219238282
aF9.5653436543579105
aF3.4033172678833008
aF3.3385498415527342
aF2.9453311314697266
aF2.7229652709350587
aF6.7415603325195317
aF6.322219442504883
aF2.5839945464477538
aF19.917009239379883
aF2.8381433123779298
aF2.60675520123291
aF2.9898091231689454
aF3.4953003775024416
aF8.965599040771485
aF4.6510204671020512
aF5.2891496584472657
aF3.1501453466796874
aF3.0825555929565431
aF2.505053284851074
aF2.0273539642333986
aF2.0846045415039063
aF2.2761504313964842
asS'Lee KY'
p128
(lp129
F4.7994156860351564
aF127.28603447015381
aF2.9542398991699219
aF1.6769395768432618
aF2.4862909299316405
aF32.070341990600589
aF1.6091581889648439
aF1.5752700821533203
aF4.0891036901245119
aF1.3711447028808594
aF1.9023279863281251
aF1.1555980052490233
aF1.1560385790405274
aF1.2713551249999999
aF1.0215671937866211
aF2.1428544271850587
aF1.4013654208374025
aF0.86021461785888675
aF1.2379833904418944
aF0.99443031225585943
aF0.85447622100830078
aF1.0624034174194337
aF0.79990993658447263
aF1.1910841983032228
aF1.0098167798461914
aF0.7695888261108399
aF0.50826808941650392
aF0.46315602264404299
aF0.48788683001708982
aF0.48739046240234374
aF0.29448377185058594
aF0.35539356353759766
asS'Leslie KY'
p130
(lp131
F14.172817932861328
aF98.907019656433107
aF7.7816056607055666
aF7.3706447130126955
aF8.6642494653930662
aF38.522458263916015
aF6.4839752096557621
aF6.3732906561889653
aF9.5262060966186528
aF6.5416345751342773
aF6.6316427108154299
aF6.4798576991577148
aF7.9148632241821293
aF9.4962016719360349
aF14.189321587036133
aF14.345648655029297
aF12.25175217022705
aF9.1027760626220697
aF15.22625281036377
aF8.6739930178833013
aF10.586907176391602
aF13.787918389709473
aF12.220592027893066
aF15.908198307250977
aF16.579163813659669
aF13.922947267456054
aF15.638229284912109
aF14.844795147888183
aF15.893915817565919
aF13.24324211138916
aF8.9603661533813472
aF7.8130071178588869
asS'Wolfe KY'
p132
(lp133
F3.5027928393554686
aF20.216981037658691
aF3.2262058062744141
aF2.4514504470825194
aF2.3606659575195312
aF41.423230374389647
aF1.5177298757324218
aF2.1854901622314453
aF4.1570493345336912
aF3.1239146677246095
aF4.5343148019409183
aF3.5972701837768555
aF3.4631444360351562
aF3.3374344347534182
aF3.6774372114257812
aF5.6219828330688477
aF2.4124473103027344
aF0.99143176141357425
aF3.0340745904541015
aF0.46749254223632813
aF0.5984496871337891
aF1.3670216400146484
aF0.64230236242675787
aF1.8893130385131836
aF1.2753037943115235
aF2.0302307613525392
aF0.99335057086181644
aF0.56359127850341795
aF0.68831161029052734
aF0.56630497119140621
aF0.35507486907958985
aF0.29434929235839846
asS'Johnson KY'
p134
(lp135
F6.3175323656005862
aF3.3021112136230468
aF1.8836509450683594
aF1.8816954218749999
aF2.3815227023315431
aF2.7026601436157227
aF1.4467140815429687
aF1.6190761348876954
aF1.5116022847290038
aF1.5743738869628907
aF1.6461430473632812
aF1.0641231327514649
aF0.9329016404418945
aF0.98625950787353511
aF1.0530595374145508
aF2.5763555040893555
aF1.791137805480957
aF1.8938980494384765
aF3.1955952473144533
aF1.7133813343505859
aF2.3847895867919924
aF3.0397348338012695
aF2.5484539873657228
aF2.9220432250976565
aF3.4934556918945314
aF3.9837921173706055
aF3.7064898818969727
aF3.376476497314453
aF3.6839996313476564
aF2.6744581995239258
aF2.5932675892944337
aF2.383931147216797
asS'Floyd KY'
p136
(lp137
F8.3900424026489251
aF8.9075778323364254
aF9.1858030274658198
aF10.293420559509277
aF12.078272759033203
aF12.723986457214355
aF11.641821531921387
aF11.649408435913086
aF9.9305642424926752
aF9.8366241182250977
aF10.253650006042481
aF9.835961194274903
aF8.5533642555541984
aF9.3169743372802731
aF7.3886402919921874
aF11.329199063476562
aF5.7860307319946287
aF3.5656849076538086
aF4.7023648015747073
aF2.4447477420654296
aF4.1772189843139644
aF6.311815909790039
aF5.6559220773315433
aF11.283466686889648
aF13.564397743408204
aF12.620020918457032
aF10.866154376403809
aF9.5773344983520516
aF11.576231698669433
aF7.8119675759277341
aF7.1584629447631833
aF6.0297245606079102
asS'Webster WV'
p138
(lp139
F1.6275989545288085
aF2.8545214302368165
aF3.647200629272461
aF2.2440606630249023
aF4.3178150209350585
aF6.7171760681152346
aF5.3936080005493166
aF4.3318637785034175
aF3.8810194900512696
aF4.5508546809692385
aF4.2439778070068357
aF3.597484683532715
aF3.5182535606079099
aF4.3422199985961916
aF64.730781204895024
aF6.0906365806884768
aF4.7619287704467776
aF6.0008272131958007
aF6.5173152095336917
aF52.561185383239746
aF8.0159120389404297
aF8.2773227571411141
aF11.484348609191894
aF12.096758427795411
aF20.828530569641114
aF12.547988878601075
aF12.988087968017577
aF11.954790652770996
aF12.678545211730958
aF31.721722538635255
aF7.7483312498168946
aF5.2839732886962887
asS'McCreary KY'
p140
(lp141
F6.0473742454833985
aF5.1015395534667967
aF3.0407101531372072
aF2.937205246826172
aF2.4513728130493164
aF2.627701896911621
aF1.5821789115600586
aF1.6785667644653319
aF1.2457337348632813
aF1.3829388427734375
aF1.3657097565307617
aF1.2183595256958009
aF0.86235659008789067
aF0.89629628643798831
aF0.91524001269531252
aF1.0083811779785157
aF1.2456810552978517
aF0.8872218272705078
aF1.863268133239746
aF1.2521229586181641
aF1.1773209033813476
aF1.728159006286621
aF1.5187540458984374
aF2.1323899940795896
aF1.7916565502929687
aF1.6734661318359374
aF1.2786111693115234
aF1.2532914921875
aF2.1197941296997072
aF0.80361252166748043
aF0.80532295031738277
aF0.88644187774658201
asS'Wise VA'
p142
(lp143
F25.109869988830567
aF20.000480324218749
aF16.36057617718506
aF15.008366857177734
aF16.717172649658202
aF20.685336504638673
aF16.527046078613282
aF41.704726305236818
aF24.140306687988282
aF13.103859955627442
aF20.57162326940918
aF16.859902358703614
aF15.839377357543945
aF16.481394129943848
aF19.913459321777342
aF25.091282302917481
aF25.645988010009766
aF22.717169440979003
aF31.078576594726563
aF23.243020691467287
aF24.233789143859862
aF28.499117235595705
aF29.664828346862794
aF37.652369224243166
aF35.776024050659181
aF33.832585013000489
aF34.25447256787109
aF30.350548540954591
aF30.257747278930665
aF23.430892527526854
aF21.230269836975097
aF20.931649954528808
asS'Fayette WV'
p144
(lp145
F8.8075973449096683
aF8.3159934154052735
aF5.3754439863891603
aF6.2686144565429691
aF7.0165702297973631
aF6.7033864689941405
aF7.2297200786132816
aF8.8080887684326168
aF8.2145272592163092
aF8.1029388736572265
aF8.8885482264404292
aF7.2523384030761715
aF6.7857825538940428
aF7.3054934529418949
aF8.0082406159057609
aF8.8563346915283194
aF6.056873116638184
aF7.184236426086426
aF7.8248189060668949
aF6.7686712435913083
aF6.5875896781616214
aF8.4210638186645514
aF9.8874092465820311
aF11.543506526672363
aF11.987971191711425
aF11.647342210205078
aF11.108392972290039
aF14.00389845916748
aF14.839291166931153
aF10.575720386474609
aF10.336711026123046
aF8.8457830366821284
asS'Norton city'
p146
(lp147
F0.021230360351562502
aF0.021230360351562502
aF0.019508985778808594
aF0.019508985778808594
aF0.021804145446777345
aF0.019508985778808594
aF0.022377898315429686
aF0.026968172607421875
aF0.029263319396972656
aF0.019508985778808594
aF0.093548301391601557
aF0.036155328002929685
aF0.010328237854003906
aF0
aF0.01549248046875
aF0.019508985778808594
aF0.018361415588378907
aF0.044186073791503903
aF0.017213903320312501
aF0
aF0.012623506774902343
aF0.0068855176391601561
aF0.0068855176391601561
aF0.0086068729248046875
aF0
aF0
aF0.010328237854003906
aF0.010328237854003906
aF0
aF0.004590383605957031
aF0
aF0
asS'Pulaski KY'
p148
(lp149
F20.68380972265625
aF10.508377895141601
aF4.5948190470581052
aF5.803267400878906
aF4.0426276950073241
aF6.1579586900634764
aF4.0092824671630858
aF6.7893670885009767
aF3.9036094805297852
aF3.3754306953735354
aF4.0500643173217776
aF2.9931223992309572
aF3.7332268892211915
aF3.5137435155029295
aF4.1290929282226561
aF5.8294731990356441
aF3.7872587556152344
aF2.3633704973754881
aF47.920096474609373
aF3.4120640539550782
aF3.7807363950195314
aF4.0751650195312497
aF4.0248612720336912
aF7.1934766155395504
aF8.1191944589233405
aF5.3977140504760746
aF3.3655636105957032
aF4.3333484602661132
aF4.3194210333862308
aF2.919350294555664
aF2.8984249823608397
aF3.2539968201293945
as.